target datalayout = "e-m:e-p270:32:32-p271:32:32-p272:64:64-i64:64-i128:128-f80:128-n8:16:32:64-S128"
target triple = "x86_64-pc-linux-gnu"

%struct.RelFileLocator = type { i32, i32, i32 }
%struct.SMgrRelationData = type { %struct.RelFileLocatorBackend, i32, [4 x i32], i32, [4 x i32], [4 x ptr], i32, %struct.dlist_node }
%struct.RelFileLocatorBackend = type { %struct.RelFileLocator, i32 }
%struct.dlist_node = type { ptr, ptr }
%struct.PendingRelDelete = type { %struct.RelFileLocator, i32, i8, i32, ptr }
%struct.PendingRelSync = type { %struct.RelFileLocator, i8 }
%struct.HASH_SEQ_STATUS = type { ptr, i32, ptr, i8, i32 }

@wal_skip_threshold = dso_local global i32 2048, align 4
@pendingDeletes = internal global ptr null, align 8
@pendingSyncHash = internal global ptr null, align 8

; Function Attrs: inlinehint nounwind uwtable
define internal zeroext i1 @BlockNumberIsValid(i32 noundef %0) #5 {
  %2 = alloca i32, align 4
  store i32 %0, ptr %2, align 4
  %3 = load i32, ptr %2, align 4
  %4 = icmp ne i32 %3, -1
  ret i1 %4
}

; Function Attrs: nounwind uwtable
define dso_local void @smgrDoPendingSyncs(i1 noundef zeroext %0, i1 noundef zeroext %1) #0 {
  %3 = alloca i8, align 1
  %4 = alloca i8, align 1
  %5 = alloca ptr, align 8
  %6 = alloca i32, align 4
  %7 = alloca i32, align 4
  %8 = alloca ptr, align 8
  %9 = alloca %struct.HASH_SEQ_STATUS, align 8
  %10 = alloca ptr, align 8
  %11 = alloca i32, align 4
  %12 = alloca i32, align 4
  %13 = alloca [4 x i32], align 16
  %14 = alloca i64, align 8
  %15 = alloca ptr, align 8
  %16 = alloca { i64, i32 }, align 4
  %17 = alloca i32, align 4
  %18 = alloca i32, align 4
  %19 = alloca ptr, align 8
  %20 = alloca { i64, i32 }, align 8
  %21 = zext i1 %0 to i8
  store i8 %21, ptr %3, align 1
  %22 = zext i1 %1 to i8
  store i8 %22, ptr %4, align 1
  call void @llvm.lifetime.start.p0(i64 8, ptr %5) #8
  call void @llvm.lifetime.start.p0(i64 4, ptr %6) #8
  store i32 0, ptr %6, align 4
  call void @llvm.lifetime.start.p0(i64 4, ptr %7) #8
  store i32 0, ptr %7, align 4
  call void @llvm.lifetime.start.p0(i64 8, ptr %8) #8
  store ptr null, ptr %8, align 8
  call void @llvm.lifetime.start.p0(i64 32, ptr %9) #8
  call void @llvm.lifetime.start.p0(i64 8, ptr %10) #8
  %23 = load ptr, ptr @pendingSyncHash, align 8
  %24 = icmp ne ptr %23, null
  br i1 %24, label %26, label %25

25:                                               ; preds = %2
  store i32 1, ptr %11, align 4
  br label %184

26:                                               ; preds = %2
  %27 = load i8, ptr %3, align 1, !range !4, !noundef !5
  %28 = trunc i8 %27 to i1
  br i1 %28, label %30, label %29

29:                                               ; preds = %26
  store ptr null, ptr @pendingSyncHash, align 8
  store i32 1, ptr %11, align 4
  br label %184

30:                                               ; preds = %26
  br label %31

31:                                               ; preds = %30
  br label %32

32:                                               ; preds = %31
  br label %33

33:                                               ; preds = %32
  %34 = load i8, ptr %4, align 1, !range !4, !noundef !5
  %35 = trunc i8 %34 to i1
  br i1 %35, label %36, label %37

36:                                               ; preds = %33
  store ptr null, ptr @pendingSyncHash, align 8
  store i32 1, ptr %11, align 4
  br label %184

37:                                               ; preds = %33
  %38 = load ptr, ptr @pendingDeletes, align 8
  store ptr %38, ptr %5, align 8
  br label %39

39:                                               ; preds = %53, %37
  %40 = load ptr, ptr %5, align 8
  %41 = icmp ne ptr %40, null
  br i1 %41, label %42, label %57

42:                                               ; preds = %39
  %43 = load ptr, ptr %5, align 8
  %44 = getelementptr inbounds nuw %struct.PendingRelDelete, ptr %43, i32 0, i32 2
  %45 = load i8, ptr %44, align 8, !range !4, !noundef !5
  %46 = trunc i8 %45 to i1
  br i1 %46, label %47, label %52

47:                                               ; preds = %42
  %48 = load ptr, ptr @pendingSyncHash, align 8
  %49 = load ptr, ptr %5, align 8
  %50 = getelementptr inbounds nuw %struct.PendingRelDelete, ptr %49, i32 0, i32 0
  %51 = call ptr @hash_search(ptr noundef %48, ptr noundef %50, i32 noundef 2, ptr noundef null)
  br label %52

52:                                               ; preds = %47, %42
  br label %53

53:                                               ; preds = %52
  %54 = load ptr, ptr %5, align 8
  %55 = getelementptr inbounds nuw %struct.PendingRelDelete, ptr %54, i32 0, i32 4
  %56 = load ptr, ptr %55, align 8
  store ptr %56, ptr %5, align 8
  br label %39, !llvm.loop !17

57:                                               ; preds = %39
  %58 = load ptr, ptr @pendingSyncHash, align 8
  call void @hash_seq_init(ptr noundef %9, ptr noundef %58)
  br label %59

59:                                               ; preds = %175, %57
  %60 = call ptr @hash_seq_search(ptr noundef %9)
  store ptr %60, ptr %10, align 8
  %61 = icmp ne ptr %60, null
  br i1 %61, label %62, label %176

62:                                               ; preds = %59
  call void @llvm.lifetime.start.p0(i64 4, ptr %12) #8
  call void @llvm.lifetime.start.p0(i64 16, ptr %13) #8
  call void @llvm.lifetime.start.p0(i64 8, ptr %14) #8
  store i64 0, ptr %14, align 8
  call void @llvm.lifetime.start.p0(i64 8, ptr %15) #8
  %63 = load ptr, ptr %10, align 8
  %64 = getelementptr inbounds nuw %struct.PendingRelSync, ptr %63, i32 0, i32 0
  call void @llvm.memcpy.p0.p0.i64(ptr align 4 %16, ptr align 4 %64, i64 12, i1 false)
  %65 = getelementptr inbounds nuw { i64, i32 }, ptr %16, i32 0, i32 0
  %66 = load i64, ptr %65, align 4
  %67 = getelementptr inbounds nuw { i64, i32 }, ptr %16, i32 0, i32 1
  %68 = load i32, ptr %67, align 4
  %69 = call ptr @smgropen(i64 %66, i32 %68, i32 noundef -1)
  store ptr %69, ptr %15, align 8
  %70 = load ptr, ptr %10, align 8
  %71 = getelementptr inbounds nuw %struct.PendingRelSync, ptr %70, i32 0, i32 1
  %72 = load i8, ptr %71, align 4, !range !4, !noundef !5
  %73 = trunc i8 %72 to i1
  br i1 %73, label %103, label %74

74:                                               ; preds = %62
  store i32 0, ptr %12, align 4
  br label %75

75:                                               ; preds = %99, %74
  %76 = load i32, ptr %12, align 4
  %77 = icmp sle i32 %76, 3
  br i1 %77, label %78, label %102

78:                                               ; preds = %75
  %79 = load ptr, ptr %15, align 8
  %80 = load i32, ptr %12, align 4
  %81 = call zeroext i1 @smgrexists(ptr noundef %79, i32 noundef %80)
  br i1 %81, label %82, label %94

82:                                               ; preds = %78
  call void @llvm.lifetime.start.p0(i64 4, ptr %17) #8
  %83 = load ptr, ptr %15, align 8
  %84 = load i32, ptr %12, align 4
  %85 = call i32 @smgrnblocks(ptr noundef %83, i32 noundef %84)
  store i32 %85, ptr %17, align 4
  %86 = load i32, ptr %17, align 4
  %87 = load i32, ptr %12, align 4
  %88 = sext i32 %87 to i64
  %89 = getelementptr inbounds [4 x i32], ptr %13, i64 0, i64 %88
  store i32 %86, ptr %89, align 4
  %90 = load i32, ptr %17, align 4
  %91 = zext i32 %90 to i64
  %92 = load i64, ptr %14, align 8
  %93 = add i64 %92, %91
  store i64 %93, ptr %14, align 8
  call void @llvm.lifetime.end.p0(i64 4, ptr %17) #8
  br label %98

94:                                               ; preds = %78
  %95 = load i32, ptr %12, align 4
  %96 = sext i32 %95 to i64
  %97 = getelementptr inbounds [4 x i32], ptr %13, i64 0, i64 %96
  store i32 -1, ptr %97, align 4
  br label %98

98:                                               ; preds = %94, %82
  br label %99

99:                                               ; preds = %98
  %100 = load i32, ptr %12, align 4
  %101 = add i32 %100, 1
  store i32 %101, ptr %12, align 4
  br label %75, !llvm.loop !18

102:                                              ; preds = %75
  br label %103

103:                                              ; preds = %102, %62
  %104 = load ptr, ptr %10, align 8
  %105 = getelementptr inbounds nuw %struct.PendingRelSync, ptr %104, i32 0, i32 1
  %106 = load i8, ptr %105, align 4, !range !4, !noundef !5
  %107 = trunc i8 %106 to i1
  br i1 %107, label %115, label %108

108:                                              ; preds = %103
  %109 = load i64, ptr %14, align 8
  %110 = load i32, ptr @wal_skip_threshold, align 4
  %111 = sext i32 %110 to i64
  %112 = mul i64 %111, 1024
  %113 = udiv i64 %112, 8192
  %114 = icmp uge i64 %109, %113
  br i1 %114, label %115, label %143

115:                                              ; preds = %108, %103
  %116 = load i32, ptr %7, align 4
  %117 = icmp eq i32 %116, 0
  br i1 %117, label %118, label %123

118:                                              ; preds = %115
  store i32 8, ptr %7, align 4
  %119 = load i32, ptr %7, align 4
  %120 = sext i32 %119 to i64
  %121 = mul i64 8, %120
  %122 = call ptr @palloc(i64 noundef %121)
  store ptr %122, ptr %8, align 8
  br label %136

123:                                              ; preds = %115
  %124 = load i32, ptr %7, align 4
  %125 = load i32, ptr %6, align 4
  %126 = icmp sle i32 %124, %125
  br i1 %126, label %127, label %135

127:                                              ; preds = %123
  %128 = load i32, ptr %7, align 4
  %129 = mul i32 %128, 2
  store i32 %129, ptr %7, align 4
  %130 = load ptr, ptr %8, align 8
  %131 = load i32, ptr %7, align 4
  %132 = sext i32 %131 to i64
  %133 = mul i64 8, %132
  %134 = call ptr @repalloc(ptr noundef %130, i64 noundef %133)
  store ptr %134, ptr %8, align 8
  br label %135

135:                                              ; preds = %127, %123
  br label %136

136:                                              ; preds = %135, %118
  %137 = load ptr, ptr %15, align 8
  %138 = load ptr, ptr %8, align 8
  %139 = load i32, ptr %6, align 4
  %140 = add i32 %139, 1
  store i32 %140, ptr %6, align 4
  %141 = sext i32 %139 to i64
  %142 = getelementptr inbounds ptr, ptr %138, i64 %141
  store ptr %137, ptr %142, align 8
  br label %175

143:                                              ; preds = %108
  store i32 0, ptr %12, align 4
  br label %144

144:                                              ; preds = %171, %143
  %145 = load i32, ptr %12, align 4
  %146 = icmp sle i32 %145, 3
  br i1 %146, label %147, label %174

147:                                              ; preds = %144
  call void @llvm.lifetime.start.p0(i64 4, ptr %18) #8
  %148 = load i32, ptr %12, align 4
  %149 = sext i32 %148 to i64
  %150 = getelementptr inbounds [4 x i32], ptr %13, i64 0, i64 %149
  %151 = load i32, ptr %150, align 4
  store i32 %151, ptr %18, align 4
  call void @llvm.lifetime.start.p0(i64 8, ptr %19) #8
  %152 = load i32, ptr %18, align 4
  %153 = call zeroext i1 @BlockNumberIsValid(i32 noundef %152)
  br i1 %153, label %155, label %154

154:                                              ; preds = %147
  store i32 14, ptr %11, align 4
  br label %168

155:                                              ; preds = %147
  %156 = load ptr, ptr %15, align 8
  %157 = getelementptr inbounds nuw %struct.SMgrRelationData, ptr %156, i32 0, i32 0
  %158 = getelementptr inbounds nuw %struct.RelFileLocatorBackend, ptr %157, i32 0, i32 0
  call void @llvm.memcpy.p0.p0.i64(ptr align 8 %20, ptr align 8 %158, i64 12, i1 false)
  %159 = getelementptr inbounds nuw { i64, i32 }, ptr %20, i32 0, i32 0
  %160 = load i64, ptr %159, align 8
  %161 = getelementptr inbounds nuw { i64, i32 }, ptr %20, i32 0, i32 1
  %162 = load i32, ptr %161, align 8
  %163 = call ptr @CreateFakeRelcacheEntry(i64 %160, i32 %162)
  store ptr %163, ptr %19, align 8
  %164 = load ptr, ptr %19, align 8
  %165 = load i32, ptr %12, align 4
  %166 = load i32, ptr %18, align 4
  call void @log_newpage_range(ptr noundef %164, i32 noundef %165, i32 noundef 0, i32 noundef %166, i1 noundef zeroext false)
  %167 = load ptr, ptr %19, align 8
  call void @FreeFakeRelcacheEntry(ptr noundef %167)
  store i32 0, ptr %11, align 4
  br label %168

168:                                              ; preds = %155, %154
  call void @llvm.lifetime.end.p0(i64 8, ptr %19) #8
  call void @llvm.lifetime.end.p0(i64 4, ptr %18) #8
  %169 = load i32, ptr %11, align 4
  switch i32 %169, label %187 [
    i32 0, label %170
    i32 14, label %171
  ]

170:                                              ; preds = %168
  br label %171

171:                                              ; preds = %170, %168
  %172 = load i32, ptr %12, align 4
  %173 = add i32 %172, 1
  store i32 %173, ptr %12, align 4
  br label %144, !llvm.loop !19

174:                                              ; preds = %144
  br label %175

175:                                              ; preds = %174, %136
  call void @llvm.lifetime.end.p0(i64 8, ptr %15) #8
  call void @llvm.lifetime.end.p0(i64 8, ptr %14) #8
  call void @llvm.lifetime.end.p0(i64 16, ptr %13) #8
  call void @llvm.lifetime.end.p0(i64 4, ptr %12) #8
  br label %59, !llvm.loop !20

176:                                              ; preds = %59
  store ptr null, ptr @pendingSyncHash, align 8
  %177 = load i32, ptr %6, align 4
  %178 = icmp sgt i32 %177, 0
  br i1 %178, label %179, label %183

179:                                              ; preds = %176
  %180 = load ptr, ptr %8, align 8
  %181 = load i32, ptr %6, align 4
  call void @smgrdosyncall(ptr noundef %180, i32 noundef %181)
  %182 = load ptr, ptr %8, align 8
  call void @pfree(ptr noundef %182)
  br label %183

183:                                              ; preds = %179, %176
  store i32 0, ptr %11, align 4
  br label %184

184:                                              ; preds = %183, %36, %29, %25
  call void @llvm.lifetime.end.p0(i64 8, ptr %10) #8
  call void @llvm.lifetime.end.p0(i64 32, ptr %9) #8
  call void @llvm.lifetime.end.p0(i64 8, ptr %8) #8
  call void @llvm.lifetime.end.p0(i64 4, ptr %7) #8
  call void @llvm.lifetime.end.p0(i64 4, ptr %6) #8
  call void @llvm.lifetime.end.p0(i64 8, ptr %5) #8
  %185 = load i32, ptr %11, align 4
  switch i32 %185, label %187 [
    i32 0, label %186
    i32 1, label %186
  ]

186:                                              ; preds = %184, %184
  ret void

187:                                              ; preds = %184, %168
  unreachable
}