; Function Attrs: nounwind uwtable
define dso_local void @smgrDoPendingSyncs(i1 noundef zeroext %0, i1 noundef zeroext %1) local_unnamed_addr #0 {
  %3 = alloca %struct.HASH_SEQ_STATUS, align 8
  %4 = alloca [4 x i32], align 16
  call void @llvm.lifetime.start.p0(i64 32, ptr nonnull %3) #8
  %5 = load ptr, ptr @pendingSyncHash, align 8
  %.not = icmp eq ptr %5, null
  br i1 %.not, label %62, label %6

6:                                                ; preds = %2
  br i1 %0, label %8, label %7

7:                                                ; preds = %6
  store ptr null, ptr @pendingSyncHash, align 8
  br label %62

8:                                                ; preds = %6
  br i1 %1, label %9, label %.preheader64

.preheader64:                                     ; preds = %8
  %.065 = load ptr, ptr @pendingDeletes, align 8
  %.not5766 = icmp eq ptr %.065, null
  br i1 %.not5766, label %._crit_edge, label %.lr.ph

9:                                                ; preds = %8
  store ptr null, ptr @pendingSyncHash, align 8
  br label %62

.lr.ph:                                           ; preds = %.preheader64, %16
  %.067 = phi ptr [ %.0, %16 ], [ %.065, %.preheader64 ]
  %10 = getelementptr inbounds nuw i8, ptr %.067, i64 16
  %11 = load i8, ptr %10, align 8, !range !4, !noundef !5
  %12 = trunc nuw i8 %11 to i1
  br i1 %12, label %13, label %16

13:                                               ; preds = %.lr.ph
  %14 = load ptr, ptr @pendingSyncHash, align 8
  %15 = tail call ptr @hash_search(ptr noundef %14, ptr noundef nonnull %.067, i32 noundef 2, ptr noundef null) #8
  br label %16

16:                                               ; preds = %.lr.ph, %13
  %17 = getelementptr inbounds nuw i8, ptr %.067, i64 24
  %.0 = load ptr, ptr %17, align 8
  %.not57 = icmp eq ptr %.0, null
  br i1 %.not57, label %._crit_edge.loopexit, label %.lr.ph, !llvm.loop !17

._crit_edge.loopexit:                             ; preds = %16
  %.pre = load ptr, ptr @pendingSyncHash, align 8
  br label %._crit_edge

._crit_edge:                                      ; preds = %._crit_edge.loopexit, %.preheader64
  %18 = phi ptr [ %.pre, %._crit_edge.loopexit ], [ %5, %.preheader64 ]
  call void @hash_seq_init(ptr noundef nonnull %3, ptr noundef %18) #8
  %19 = call ptr @hash_seq_search(ptr noundef nonnull %3) #8
  %.not5871 = icmp eq ptr %19, null
  br i1 %.not5871, label %._crit_edge77.thread, label %.lr.ph76

._crit_edge77.thread:                             ; preds = %._crit_edge
  store ptr null, ptr @pendingSyncHash, align 8
  br label %62

.lr.ph76:                                         ; preds = %._crit_edge, %.loopexit
  %20 = phi ptr [ %59, %.loopexit ], [ %19, %._crit_edge ]
  %.04574 = phi i32 [ %.1, %.loopexit ], [ 0, %._crit_edge ]
  %.04673 = phi i32 [ %.2, %.loopexit ], [ 0, %._crit_edge ]
  %.04872 = phi ptr [ %.250, %.loopexit ], [ null, %._crit_edge ]
  call void @llvm.lifetime.start.p0(i64 16, ptr nonnull %4) #8
  %.sroa.05.0.copyload = load i64, ptr %20, align 4
  %.sroa.26.0..sroa_idx = getelementptr inbounds nuw i8, ptr %20, i64 8
  %.sroa.26.0.copyload = load i32, ptr %.sroa.26.0..sroa_idx, align 4
  %21 = call ptr @smgropen(i64 %.sroa.05.0.copyload, i32 %.sroa.26.0.copyload, i32 noundef -1) #8
  %22 = getelementptr inbounds nuw i8, ptr %20, i64 12
  %23 = load i8, ptr %22, align 4, !range !4, !noundef !5
  %24 = trunc nuw i8 %23 to i1
  br i1 %24, label %.loopexit63.thread, label %.preheader62

.preheader62:                                     ; preds = %.lr.ph76, %31
  %indvars.iv = phi i64 [ %indvars.iv.next, %31 ], [ 0, %.lr.ph76 ]
  %.15468 = phi i64 [ %.255, %31 ], [ 0, %.lr.ph76 ]
  %25 = trunc nuw nsw i64 %indvars.iv to i32
  %26 = call zeroext i1 @smgrexists(ptr noundef %21, i32 noundef %25) #8
  br i1 %26, label %27, label %31

27:                                               ; preds = %.preheader62
  %28 = call i32 @smgrnblocks(ptr noundef %21, i32 noundef %25) #8
  %29 = zext i32 %28 to i64
  %30 = add i64 %.15468, %29
  br label %31

31:                                               ; preds = %.preheader62, %27
  %.sink = phi i32 [ %28, %27 ], [ -1, %.preheader62 ]
  %.255 = phi i64 [ %30, %27 ], [ %.15468, %.preheader62 ]
  %32 = getelementptr inbounds nuw [4 x i32], ptr %4, i64 0, i64 %indvars.iv
  store i32 %.sink, ptr %32, align 4
  %indvars.iv.next = add nuw nsw i64 %indvars.iv, 1
  %exitcond.not = icmp eq i64 %indvars.iv.next, 4
  br i1 %exitcond.not, label %.loopexit63, label %.preheader62, !llvm.loop !18

.loopexit63:                                      ; preds = %31
  %.pre84 = load i8, ptr %22, align 4, !range !4
  %33 = trunc nuw i8 %.pre84 to i1
  br i1 %33, label %.loopexit63.thread, label %34

34:                                               ; preds = %.loopexit63
  %35 = load i32, ptr @wal_skip_threshold, align 4
  %36 = sext i32 %35 to i64
  %37 = lshr i64 %36, 3
  %38 = and i64 %37, 2251799813685247
  %.not59 = icmp ult i64 %.255, %38
  br i1 %.not59, label %.preheader, label %.loopexit63.thread

.preheader:                                       ; preds = %34
  %.sroa.2.0..sroa_idx = getelementptr inbounds nuw i8, ptr %21, i64 8
  br label %52

.loopexit63.thread:                               ; preds = %.lr.ph76, %34, %.loopexit63
  %39 = icmp eq i32 %.04673, 0
  br i1 %39, label %40, label %42

40:                                               ; preds = %.loopexit63.thread
  %41 = call ptr @palloc(i64 noundef 64) #8
  br label %48

42:                                               ; preds = %.loopexit63.thread
  %.not60 = icmp sgt i32 %.04673, %.04574
  br i1 %.not60, label %48, label %43

43:                                               ; preds = %42
  %44 = shl i32 %.04673, 1
  %45 = sext i32 %44 to i64
  %46 = shl nsw i64 %45, 3
  %47 = call ptr @repalloc(ptr noundef %.04872, i64 noundef %46) #8
  br label %48

48:                                               ; preds = %42, %43, %40
  %.149 = phi ptr [ %41, %40 ], [ %47, %43 ], [ %.04872, %42 ]
  %.147 = phi i32 [ 8, %40 ], [ %44, %43 ], [ %.04673, %42 ]
  %49 = add i32 %.04574, 1
  %50 = sext i32 %.04574 to i64
  %51 = getelementptr inbounds ptr, ptr %.149, i64 %50
  store ptr %21, ptr %51, align 8
  br label %.loopexit

52:                                               ; preds = %.preheader, %58
  %indvars.iv80 = phi i64 [ 0, %.preheader ], [ %indvars.iv.next81, %58 ]
  %53 = getelementptr inbounds nuw [4 x i32], ptr %4, i64 0, i64 %indvars.iv80
  %54 = load i32, ptr %53, align 4
  %.not61 = icmp eq i32 %54, -1
  br i1 %.not61, label %58, label %55

55:                                               ; preds = %52
  %.sroa.0.0.copyload = load i64, ptr %21, align 8
  %.sroa.2.0.copyload = load i32, ptr %.sroa.2.0..sroa_idx, align 8
  %56 = call ptr @CreateFakeRelcacheEntry(i64 %.sroa.0.0.copyload, i32 %.sroa.2.0.copyload) #8
  %57 = trunc nuw nsw i64 %indvars.iv80 to i32
  call void @log_newpage_range(ptr noundef %56, i32 noundef %57, i32 noundef 0, i32 noundef %54, i1 noundef zeroext false) #8
  call void @FreeFakeRelcacheEntry(ptr noundef %56) #8
  br label %58

58:                                               ; preds = %52, %55
  %indvars.iv.next81 = add nuw nsw i64 %indvars.iv80, 1
  %exitcond83.not = icmp eq i64 %indvars.iv.next81, 4
  br i1 %exitcond83.not, label %.loopexit, label %52, !llvm.loop !19

.loopexit:                                        ; preds = %58, %48
  %.250 = phi ptr [ %.149, %48 ], [ %.04872, %58 ]
  %.2 = phi i32 [ %.147, %48 ], [ %.04673, %58 ]
  %.1 = phi i32 [ %49, %48 ], [ %.04574, %58 ]
  call void @llvm.lifetime.end.p0(i64 16, ptr nonnull %4) #8
  %59 = call ptr @hash_seq_search(ptr noundef nonnull %3) #8
  %.not58 = icmp eq ptr %59, null
  br i1 %.not58, label %._crit_edge77, label %.lr.ph76, !llvm.loop !20

._crit_edge77:                                    ; preds = %.loopexit
  store ptr null, ptr @pendingSyncHash, align 8
  %60 = icmp sgt i32 %.1, 0
  br i1 %60, label %61, label %62

61:                                               ; preds = %._crit_edge77
  call void @smgrdosyncall(ptr noundef %.250, i32 noundef %.1) #8
  call void @pfree(ptr noundef %.250) #8
  br label %62

62:                                               ; preds = %._crit_edge77.thread, %._crit_edge77, %61, %2, %9, %7
  call void @llvm.lifetime.end.p0(i64 32, ptr nonnull %3) #8
  ret void
}